; Function Attrs: mustprogress uwtable
define void @_ZN8proxygen11HTTPSession16onEgressBufferedEv(ptr noundef nonnull align 8 dereferenceable(2504) %this) unnamed_addr #3 align 2 {
entry:
  %infoCallback_ = getelementptr inbounds i8, ptr %this, i64 216
  %0 = load ptr, ptr %infoCallback_, align 8
  %tobool.not = icmp eq ptr %0, null
  br i1 %tobool.not, label %if.end, label %if.then

if.then:                                          ; preds = %entry
  %vtable = load ptr, ptr %0, align 8
  %vfn = getelementptr inbounds i8, ptr %vtable, i64 208
  %1 = load ptr, ptr %vfn, align 8
  tail call void %1(ptr noundef nonnull align 8 dereferenceable(8) %0, ptr noundef nonnull align 8 dereferenceable(1582) %this)
  br label %if.end

if.end:                                           ; preds = %if.then, %entry
  ret void
}